target datalayout = "e-m:e-p270:32:32-p271:32:32-p272:64:64-i64:64-i128:128-f80:128-n8:16:32:64-S128"
target triple = "x86_64-pc-linux-gnu"

%struct.lstopo_ascii_output = type { ptr, ptr, i32, i32, i32 }
%struct.lstopo_output = type { ptr, i32, i32, i32, ptr, i32, i32, i32, i32, i32, i32, i32, i32, ptr, ptr, i32, i32, i64, i64, i64, i32, [3 x [128 x i8]], i32, i32, ptr, i32, i32, i32, i32, i32, i32, %struct.hwloc_calc_level, i32, i32, i32, i64, [256 x i8], i32, i32, i32, i32, i32, float, [20 x i32], i32, i32, i32, [20 x i32], i32, [20 x i32], i32, [20 x i32], i32, i32, i32, i32, ptr, ptr, i32, [20 x i32], [20 x i32], [20 x i32], ptr, ptr, i64, ptr, i32, i32, i32 }
%struct.hwloc_calc_level = type { i32, i32, %union.hwloc_obj_attr_u, [32 x i8], i32, i32, i32, i32 }
%union.hwloc_obj_attr_u = type { %struct.hwloc_numanode_attr_s, [24 x i8] }
%struct.hwloc_numanode_attr_s = type { i64, i32, ptr }
%struct.cell = type { i32, ptr, ptr }

; Function Attrs: nounwind uwtable
define internal void @put(ptr noundef %0, i32 noundef %1, i32 noundef %2, i32 noundef %3, ptr noundef %4, ptr noundef %5) #0 {
  %7 = alloca ptr, align 8
  %8 = alloca i32, align 4
  %9 = alloca i32, align 4
  %10 = alloca i32, align 4
  %11 = alloca ptr, align 8
  %12 = alloca ptr, align 8
  store ptr %0, ptr %7, align 8, !tbaa !71
  store i32 %1, ptr %8, align 4, !tbaa !13
  store i32 %2, ptr %9, align 4, !tbaa !13
  store i32 %3, ptr %10, align 4, !tbaa !13
  store ptr %4, ptr %11, align 8, !tbaa !11
  store ptr %5, ptr %12, align 8, !tbaa !11
  %13 = load i32, ptr %8, align 4, !tbaa !13
  %14 = load ptr, ptr %7, align 8, !tbaa !71
  %15 = getelementptr inbounds nuw %struct.lstopo_ascii_output, ptr %14, i32 0, i32 3
  %16 = load i32, ptr %15, align 4, !tbaa !48
  %17 = icmp sge i32 %13, %16
  br i1 %17, label %24, label %18

18:                                               ; preds = %6
  %19 = load i32, ptr %9, align 4, !tbaa !13
  %20 = load ptr, ptr %7, align 8, !tbaa !71
  %21 = getelementptr inbounds nuw %struct.lstopo_ascii_output, ptr %20, i32 0, i32 4
  %22 = load i32, ptr %21, align 8, !tbaa !50
  %23 = icmp sge i32 %19, %22
  br i1 %23, label %24, label %25

24:                                               ; preds = %18, %6
  br label %69

25:                                               ; preds = %18
  %26 = load i32, ptr %10, align 4, !tbaa !13
  %27 = load ptr, ptr %7, align 8, !tbaa !71
  %28 = getelementptr inbounds nuw %struct.lstopo_ascii_output, ptr %27, i32 0, i32 1
  %29 = load ptr, ptr %28, align 8, !tbaa !51
  %30 = load i32, ptr %9, align 4, !tbaa !13
  %31 = sext i32 %30 to i64
  %32 = getelementptr inbounds ptr, ptr %29, i64 %31
  %33 = load ptr, ptr %32, align 8, !tbaa !52
  %34 = load i32, ptr %8, align 4, !tbaa !13
  %35 = sext i32 %34 to i64
  %36 = getelementptr inbounds %struct.cell, ptr %33, i64 %35
  %37 = getelementptr inbounds nuw %struct.cell, ptr %36, i32 0, i32 0
  store i32 %26, ptr %37, align 8, !tbaa !54
  %38 = load ptr, ptr %11, align 8, !tbaa !11
  %39 = icmp ne ptr %38, null
  br i1 %39, label %40, label %53

40:                                               ; preds = %25
  %41 = load ptr, ptr %11, align 8, !tbaa !11
  %42 = load ptr, ptr %7, align 8, !tbaa !71
  %43 = getelementptr inbounds nuw %struct.lstopo_ascii_output, ptr %42, i32 0, i32 1
  %44 = load ptr, ptr %43, align 8, !tbaa !51
  %45 = load i32, ptr %9, align 4, !tbaa !13
  %46 = sext i32 %45 to i64
  %47 = getelementptr inbounds ptr, ptr %44, i64 %46
  %48 = load ptr, ptr %47, align 8, !tbaa !52
  %49 = load i32, ptr %8, align 4, !tbaa !13
  %50 = sext i32 %49 to i64
  %51 = getelementptr inbounds %struct.cell, ptr %48, i64 %50
  %52 = getelementptr inbounds nuw %struct.cell, ptr %51, i32 0, i32 1
  store ptr %41, ptr %52, align 8, !tbaa !56
  br label %53

53:                                               ; preds = %40, %25
  %54 = load ptr, ptr %12, align 8, !tbaa !11
  %55 = icmp ne ptr %54, null
  br i1 %55, label %56, label %69

56:                                               ; preds = %53
  %57 = load ptr, ptr %12, align 8, !tbaa !11
  %58 = load ptr, ptr %7, align 8, !tbaa !71
  %59 = getelementptr inbounds nuw %struct.lstopo_ascii_output, ptr %58, i32 0, i32 1
  %60 = load ptr, ptr %59, align 8, !tbaa !51
  %61 = load i32, ptr %9, align 4, !tbaa !13
  %62 = sext i32 %61 to i64
  %63 = getelementptr inbounds ptr, ptr %60, i64 %62
  %64 = load ptr, ptr %63, align 8, !tbaa !52
  %65 = load i32, ptr %8, align 4, !tbaa !13
  %66 = sext i32 %65 to i64
  %67 = getelementptr inbounds %struct.cell, ptr %64, i64 %66
  %68 = getelementptr inbounds nuw %struct.cell, ptr %67, i32 0, i32 2
  store ptr %57, ptr %68, align 8, !tbaa !57
  br label %69

69:                                               ; preds = %24, %56, %53
  ret void
}

; Function Attrs: nounwind uwtable
define internal void @ascii_box(ptr noundef %0, ptr noundef %1, i32 noundef %2, i32 noundef %3, i32 noundef %4, i32 noundef %5, i32 noundef %6, ptr noundef %7, i32 noundef %8) #0 {
  %10 = alloca ptr, align 8
  %11 = alloca ptr, align 8
  %12 = alloca i32, align 4
  %13 = alloca i32, align 4
  %14 = alloca i32, align 4
  %15 = alloca i32, align 4
  %16 = alloca i32, align 4
  %17 = alloca ptr, align 8
  %18 = alloca i32, align 4
  %19 = alloca ptr, align 8
  %20 = alloca i32, align 4
  %21 = alloca i32, align 4
  %22 = alloca i32, align 4
  %23 = alloca i32, align 4
  store ptr %0, ptr %10, align 8, !tbaa !4
  store ptr %1, ptr %11, align 8, !tbaa !11
  store i32 %2, ptr %12, align 4, !tbaa !13
  store i32 %3, ptr %13, align 4, !tbaa !13
  store i32 %4, ptr %14, align 4, !tbaa !13
  store i32 %5, ptr %15, align 4, !tbaa !13
  store i32 %6, ptr %16, align 4, !tbaa !13
  store ptr %7, ptr %17, align 8, !tbaa !69
  store i32 %8, ptr %18, align 4, !tbaa !13
  call void @llvm.lifetime.start.p0(i64 8, ptr %19) #8
  %24 = load ptr, ptr %10, align 8, !tbaa !4
  %25 = getelementptr inbounds nuw %struct.lstopo_output, ptr %24, i32 0, i32 63
  %26 = load ptr, ptr %25, align 8, !tbaa !44
  store ptr %26, ptr %19, align 8, !tbaa !71
  call void @llvm.lifetime.start.p0(i64 4, ptr %20) #8
  call void @llvm.lifetime.start.p0(i64 4, ptr %21) #8
  call void @llvm.lifetime.start.p0(i64 4, ptr %22) #8
  call void @llvm.lifetime.start.p0(i64 4, ptr %23) #8
  %27 = load i32, ptr %13, align 4, !tbaa !13
  %28 = mul i32 %27, 2
  %29 = udiv i32 %28, 10
  store i32 %29, ptr %13, align 4, !tbaa !13
  %30 = load i32, ptr %14, align 4, !tbaa !13
  %31 = mul i32 %30, 2
  %32 = udiv i32 %31, 10
  store i32 %32, ptr %14, align 4, !tbaa !13
  %33 = load i32, ptr %15, align 4, !tbaa !13
  %34 = udiv i32 %33, 10
  store i32 %34, ptr %15, align 4, !tbaa !13
  %35 = load i32, ptr %16, align 4, !tbaa !13
  %36 = udiv i32 %35, 10
  store i32 %36, ptr %16, align 4, !tbaa !13
  %37 = load i32, ptr %13, align 4, !tbaa !13
  %38 = load i32, ptr %14, align 4, !tbaa !13
  %39 = add i32 %37, %38
  %40 = sub i32 %39, 1
  store i32 %40, ptr %22, align 4, !tbaa !13
  %41 = load i32, ptr %15, align 4, !tbaa !13
  %42 = load i32, ptr %16, align 4, !tbaa !13
  %43 = add i32 %41, %42
  %44 = sub i32 %43, 1
  store i32 %44, ptr %23, align 4, !tbaa !13
  %45 = load ptr, ptr %19, align 8, !tbaa !71
  %46 = load i32, ptr %13, align 4, !tbaa !13
  %47 = load i32, ptr %15, align 4, !tbaa !13
  %48 = load ptr, ptr %11, align 8, !tbaa !11
  call void @merge(ptr noundef %45, i32 noundef %46, i32 noundef %47, i32 noundef 10, i32 noundef 0, ptr noundef %48)
  %49 = load ptr, ptr %19, align 8, !tbaa !71
  %50 = load i32, ptr %22, align 4, !tbaa !13
  %51 = load i32, ptr %15, align 4, !tbaa !13
  %52 = load ptr, ptr %11, align 8, !tbaa !11
  call void @merge(ptr noundef %49, i32 noundef %50, i32 noundef %51, i32 noundef 6, i32 noundef 0, ptr noundef %52)
  %53 = load ptr, ptr %19, align 8, !tbaa !71
  %54 = load i32, ptr %13, align 4, !tbaa !13
  %55 = load i32, ptr %23, align 4, !tbaa !13
  %56 = load ptr, ptr %11, align 8, !tbaa !11
  call void @merge(ptr noundef %53, i32 noundef %54, i32 noundef %55, i32 noundef 9, i32 noundef 0, ptr noundef %56)
  %57 = load ptr, ptr %19, align 8, !tbaa !71
  %58 = load i32, ptr %22, align 4, !tbaa !13
  %59 = load i32, ptr %23, align 4, !tbaa !13
  %60 = load ptr, ptr %11, align 8, !tbaa !11
  call void @merge(ptr noundef %57, i32 noundef %58, i32 noundef %59, i32 noundef 5, i32 noundef 0, ptr noundef %60)
  store i32 1, ptr %20, align 4, !tbaa !13
  br label %61

61:                                               ; preds = %79, %9
  %62 = load i32, ptr %20, align 4, !tbaa !13
  %63 = load i32, ptr %14, align 4, !tbaa !13
  %64 = sub i32 %63, 1
  %65 = icmp ult i32 %62, %64
  br i1 %65, label %66, label %82

66:                                               ; preds = %61
  %67 = load ptr, ptr %19, align 8, !tbaa !71
  %68 = load i32, ptr %13, align 4, !tbaa !13
  %69 = load i32, ptr %20, align 4, !tbaa !13
  %70 = add i32 %68, %69
  %71 = load i32, ptr %15, align 4, !tbaa !13
  %72 = load ptr, ptr %11, align 8, !tbaa !11
  call void @merge(ptr noundef %67, i32 noundef %70, i32 noundef %71, i32 noundef 12, i32 noundef 2, ptr noundef %72)
  %73 = load ptr, ptr %19, align 8, !tbaa !71
  %74 = load i32, ptr %13, align 4, !tbaa !13
  %75 = load i32, ptr %20, align 4, !tbaa !13
  %76 = add i32 %74, %75
  %77 = load i32, ptr %23, align 4, !tbaa !13
  %78 = load ptr, ptr %11, align 8, !tbaa !11
  call void @merge(ptr noundef %73, i32 noundef %76, i32 noundef %77, i32 noundef 12, i32 noundef 1, ptr noundef %78)
  br label %79

79:                                               ; preds = %66
  %80 = load i32, ptr %20, align 4, !tbaa !13
  %81 = add i32 %80, 1
  store i32 %81, ptr %20, align 4, !tbaa !13
  br label %61, !llvm.loop !73

82:                                               ; preds = %61
  store i32 1, ptr %21, align 4, !tbaa !13
  br label %83

83:                                               ; preds = %101, %82
  %84 = load i32, ptr %21, align 4, !tbaa !13
  %85 = load i32, ptr %16, align 4, !tbaa !13
  %86 = sub i32 %85, 1
  %87 = icmp ult i32 %84, %86
  br i1 %87, label %88, label %104

88:                                               ; preds = %83
  %89 = load ptr, ptr %19, align 8, !tbaa !71
  %90 = load i32, ptr %13, align 4, !tbaa !13
  %91 = load i32, ptr %15, align 4, !tbaa !13
  %92 = load i32, ptr %21, align 4, !tbaa !13
  %93 = add i32 %91, %92
  %94 = load ptr, ptr %11, align 8, !tbaa !11
  call void @merge(ptr noundef %89, i32 noundef %90, i32 noundef %93, i32 noundef 3, i32 noundef 8, ptr noundef %94)
  %95 = load ptr, ptr %19, align 8, !tbaa !71
  %96 = load i32, ptr %22, align 4, !tbaa !13
  %97 = load i32, ptr %15, align 4, !tbaa !13
  %98 = load i32, ptr %21, align 4, !tbaa !13
  %99 = add i32 %97, %98
  %100 = load ptr, ptr %11, align 8, !tbaa !11
  call void @merge(ptr noundef %95, i32 noundef %96, i32 noundef %99, i32 noundef 3, i32 noundef 4, ptr noundef %100)
  br label %101

101:                                              ; preds = %88
  %102 = load i32, ptr %21, align 4, !tbaa !13
  %103 = add i32 %102, 1
  store i32 %103, ptr %21, align 4, !tbaa !13
  br label %83, !llvm.loop !74

104:                                              ; preds = %83
  %105 = load i32, ptr %15, align 4, !tbaa !13
  %106 = add i32 %105, 1
  store i32 %106, ptr %21, align 4, !tbaa !13
  br label %107

107:                                              ; preds = %127, %104
  %108 = load i32, ptr %21, align 4, !tbaa !13
  %109 = load i32, ptr %23, align 4, !tbaa !13
  %110 = icmp ult i32 %108, %109
  br i1 %110, label %111, label %130

111:                                              ; preds = %107
  %112 = load i32, ptr %13, align 4, !tbaa !13
  %113 = add i32 %112, 1
  store i32 %113, ptr %20, align 4, !tbaa !13
  br label %114

114:                                              ; preds = %123, %111
  %115 = load i32, ptr %20, align 4, !tbaa !13
  %116 = load i32, ptr %22, align 4, !tbaa !13
  %117 = icmp ult i32 %115, %116
  br i1 %117, label %118, label %126

118:                                              ; preds = %114
  %119 = load ptr, ptr %19, align 8, !tbaa !71
  %120 = load i32, ptr %20, align 4, !tbaa !13
  %121 = load i32, ptr %21, align 4, !tbaa !13
  %122 = load ptr, ptr %11, align 8, !tbaa !11
  call void @put(ptr noundef %119, i32 noundef %120, i32 noundef %121, i32 noundef 32, ptr noundef null, ptr noundef %122)
  br label %123

123:                                              ; preds = %118
  %124 = load i32, ptr %20, align 4, !tbaa !13
  %125 = add i32 %124, 1
  store i32 %125, ptr %20, align 4, !tbaa !13
  br label %114, !llvm.loop !75

126:                                              ; preds = %114
  br label %127

127:                                              ; preds = %126
  %128 = load i32, ptr %21, align 4, !tbaa !13
  %129 = add i32 %128, 1
  store i32 %129, ptr %21, align 4, !tbaa !13
  br label %107, !llvm.loop !76

130:                                              ; preds = %107
  call void @llvm.lifetime.end.p0(i64 4, ptr %23) #8
  call void @llvm.lifetime.end.p0(i64 4, ptr %22) #8
  call void @llvm.lifetime.end.p0(i64 4, ptr %21) #8
  call void @llvm.lifetime.end.p0(i64 4, ptr %20) #8
  call void @llvm.lifetime.end.p0(i64 8, ptr %19) #8
  ret void
}