; Function Attrs: nofree norecurse nosync nounwind memory(readwrite, inaccessiblemem: none) uwtable
define internal void @ascii_box(ptr noundef readonly captures(none) %0, ptr noundef %1, i32 %2, i32 noundef %3, i32 noundef %4, i32 noundef %5, i32 noundef %6, ptr readnone captures(none) %7, i32 %8) #11 {
  %10 = getelementptr inbounds nuw i8, ptr %0, i64 1584
  %11 = load ptr, ptr %10, align 8, !tbaa !41
  %12 = shl i32 %3, 1
  %13 = udiv i32 %12, 10
  %14 = shl i32 %4, 1
  %15 = udiv i32 %14, 10
  %16 = udiv i32 %5, 10
  %17 = udiv i32 %6, 10
  %18 = add nsw i32 %15, -1
  %19 = add nsw i32 %18, %13
  %20 = add nsw i32 %17, -1
  %21 = add nsw i32 %20, %16
  tail call fastcc void @merge(ptr noundef %11, i32 noundef %13, i32 noundef %16, i32 noundef 10, i32 noundef 0, ptr noundef %1)
  tail call fastcc void @merge(ptr noundef %11, i32 noundef %19, i32 noundef %16, i32 noundef 6, i32 noundef 0, ptr noundef %1)
  tail call fastcc void @merge(ptr noundef %11, i32 noundef %13, i32 noundef %21, i32 noundef 9, i32 noundef 0, ptr noundef %1)
  tail call fastcc void @merge(ptr noundef %11, i32 noundef %19, i32 noundef %21, i32 noundef 5, i32 noundef 0, ptr noundef %1)
  %22 = icmp ugt i32 %18, 1
  br i1 %22, label %.lr.ph, label %.preheader65

.preheader65:                                     ; preds = %.lr.ph, %9
  %23 = icmp ugt i32 %20, 1
  br i1 %23, label %.lr.ph68, label %.preheader64

.lr.ph:                                           ; preds = %9, %.lr.ph
  %.06266 = phi i32 [ %25, %.lr.ph ], [ 1, %9 ]
  %24 = add i32 %.06266, %13
  tail call fastcc void @merge(ptr noundef %11, i32 noundef %24, i32 noundef %16, i32 noundef 12, i32 noundef 2, ptr noundef %1)
  tail call fastcc void @merge(ptr noundef %11, i32 noundef %24, i32 noundef %21, i32 noundef 12, i32 noundef 1, ptr noundef %1)
  %25 = add nuw i32 %.06266, 1
  %exitcond.not = icmp eq i32 %25, %18
  br i1 %exitcond.not, label %.preheader65, label %.lr.ph, !llvm.loop !68

.preheader64:                                     ; preds = %.lr.ph68, %.preheader65
  %.172 = add nuw nsw i32 %16, 1
  %26 = icmp ult i32 %.172, %21
  br i1 %26, label %.preheader.lr.ph, label %._crit_edge

.preheader.lr.ph:                                 ; preds = %.preheader64
  %.16369 = add nuw nsw i32 %13, 1
  %27 = icmp ult i32 %.16369, %19
  %28 = getelementptr inbounds nuw i8, ptr %11, i64 24
  %29 = getelementptr inbounds nuw i8, ptr %11, i64 8
  br i1 %27, label %.preheader.lr.ph.split.us, label %._crit_edge

.preheader.lr.ph.split.us:                        ; preds = %.preheader.lr.ph
  %.not22.i = icmp eq ptr %1, null
  %30 = getelementptr inbounds nuw i8, ptr %11, i64 20
  %31 = load i32, ptr %30, align 4, !tbaa !45
  br i1 %.not22.i, label %.preheader.us.us, label %.preheader.us

.preheader.us.us:                                 ; preds = %.preheader.lr.ph.split.us, %..loopexit_crit_edge.split.us.us.us
  %.173.us.us = phi i32 [ %.1.us.us, %..loopexit_crit_edge.split.us.us.us ], [ %.172, %.preheader.lr.ph.split.us ]
  %32 = sext i32 %.173.us.us to i64
  br label %33

33:                                               ; preds = %put.exit.us.us.us, %.preheader.us.us
  %.16370.us.us.us = phi i32 [ %.16369, %.preheader.us.us ], [ %.163.us.us.us, %put.exit.us.us.us ]
  %.not.i.us.us.us = icmp slt i32 %.16370.us.us.us, %31
  br i1 %.not.i.us.us.us, label %34, label %put.exit.us.us.us

34:                                               ; preds = %33
  %35 = load i32, ptr %28, align 8, !tbaa !47
  %.not20.i.us.us.us = icmp slt i32 %.173.us.us, %35
  br i1 %.not20.i.us.us.us, label %36, label %put.exit.us.us.us

36:                                               ; preds = %34
  %37 = load ptr, ptr %29, align 8, !tbaa !48
  %38 = getelementptr inbounds ptr, ptr %37, i64 %32
  %39 = load ptr, ptr %38, align 8, !tbaa !49
  %40 = sext i32 %.16370.us.us.us to i64
  %41 = getelementptr inbounds %struct.cell, ptr %39, i64 %40
  store i32 32, ptr %41, align 8, !tbaa !51
  br label %put.exit.us.us.us

put.exit.us.us.us:                                ; preds = %36, %34, %33
  %.163.us.us.us = add nuw i32 %.16370.us.us.us, 1
  %exitcond87.not = icmp eq i32 %.163.us.us.us, %19
  br i1 %exitcond87.not, label %..loopexit_crit_edge.split.us.us.us, label %33, !llvm.loop !69

..loopexit_crit_edge.split.us.us.us:              ; preds = %put.exit.us.us.us
  %.1.us.us = add nuw i32 %.173.us.us, 1
  %exitcond88.not = icmp eq i32 %.1.us.us, %21
  br i1 %exitcond88.not, label %._crit_edge, label %.preheader.us.us, !llvm.loop !70

.preheader.us:                                    ; preds = %.preheader.lr.ph.split.us, %..loopexit_crit_edge.split.us80
  %.173.us = phi i32 [ %.1.us, %..loopexit_crit_edge.split.us80 ], [ %.172, %.preheader.lr.ph.split.us ]
  %42 = sext i32 %.173.us to i64
  br label %43

43:                                               ; preds = %.preheader.us, %put.exit.us78
  %.16370.us75 = phi i32 [ %.16369, %.preheader.us ], [ %.163.us79, %put.exit.us78 ]
  %.not.i.us76 = icmp slt i32 %.16370.us75, %31
  br i1 %.not.i.us76, label %44, label %put.exit.us78

44:                                               ; preds = %43
  %45 = load i32, ptr %28, align 8, !tbaa !47
  %.not20.i.us77 = icmp slt i32 %.173.us, %45
  br i1 %.not20.i.us77, label %46, label %put.exit.us78

46:                                               ; preds = %44
  %47 = load ptr, ptr %29, align 8, !tbaa !48
  %48 = getelementptr inbounds ptr, ptr %47, i64 %42
  %49 = load ptr, ptr %48, align 8, !tbaa !49
  %50 = sext i32 %.16370.us75 to i64
  %51 = getelementptr inbounds %struct.cell, ptr %49, i64 %50
  store i32 32, ptr %51, align 8, !tbaa !51
  %52 = getelementptr inbounds %struct.cell, ptr %49, i64 %50, i32 2
  store ptr %1, ptr %52, align 8, !tbaa !55
  br label %put.exit.us78

put.exit.us78:                                    ; preds = %46, %44, %43
  %.163.us79 = add nuw i32 %.16370.us75, 1
  %exitcond85.not = icmp eq i32 %.163.us79, %19
  br i1 %exitcond85.not, label %..loopexit_crit_edge.split.us80, label %43, !llvm.loop !69

..loopexit_crit_edge.split.us80:                  ; preds = %put.exit.us78
  %.1.us = add nuw i32 %.173.us, 1
  %exitcond86.not = icmp eq i32 %.1.us, %21
  br i1 %exitcond86.not, label %._crit_edge, label %.preheader.us, !llvm.loop !70

.lr.ph68:                                         ; preds = %.preheader65, %.lr.ph68
  %.067 = phi i32 [ %54, %.lr.ph68 ], [ 1, %.preheader65 ]
  %53 = add i32 %.067, %16
  tail call fastcc void @merge(ptr noundef %11, i32 noundef %13, i32 noundef %53, i32 noundef 3, i32 noundef 8, ptr noundef %1)
  tail call fastcc void @merge(ptr noundef %11, i32 noundef %19, i32 noundef %53, i32 noundef 3, i32 noundef 4, ptr noundef %1)
  %54 = add nuw i32 %.067, 1
  %exitcond84.not = icmp eq i32 %54, %20
  br i1 %exitcond84.not, label %.preheader64, label %.lr.ph68, !llvm.loop !71

._crit_edge:                                      ; preds = %..loopexit_crit_edge.split.us80, %..loopexit_crit_edge.split.us.us.us, %.preheader.lr.ph, %.preheader64
  ret void
}